target datalayout = "e-m:e-p270:32:32-p271:32:32-p272:64:64-i64:64-i128:128-f80:128-n8:16:32:64-S128"
target triple = "x86_64-unknown-linux-gnu"

%struct.grpc_auth_property = type { ptr, ptr, i64 }

; Function Attrs: mustprogress uwtable
define void @_Z24grpc_auth_property_resetP18grpc_auth_property(ptr noundef %property) #4 {
entry:
  %property.addr = alloca ptr, align 8
  store ptr %property, ptr %property.addr, align 8
  %0 = load ptr, ptr %property.addr, align 8
  %name = getelementptr inbounds %struct.grpc_auth_property, ptr %0, i32 0, i32 0
  %1 = load ptr, ptr %name, align 8
  call void @gpr_free(ptr noundef %1)
  %2 = load ptr, ptr %property.addr, align 8
  %value = getelementptr inbounds %struct.grpc_auth_property, ptr %2, i32 0, i32 1
  %3 = load ptr, ptr %value, align 8
  call void @gpr_free(ptr noundef %3)
  %4 = load ptr, ptr %property.addr, align 8
  call void @llvm.memset.p0.i64(ptr align 8 %4, i8 0, i64 24, i1 false)
  ret void
}