; Function Attrs: mustprogress uwtable
define void @_Z24grpc_auth_property_resetP18grpc_auth_property(ptr nocapture noundef %property) local_unnamed_addr #4 {
entry:
  %0 = load ptr, ptr %property, align 8
  tail call void @gpr_free(ptr noundef %0)
  %value = getelementptr inbounds i8, ptr %property, i64 8
  %1 = load ptr, ptr %value, align 8
  tail call void @gpr_free(ptr noundef %1)
  tail call void @llvm.memset.p0.i64(ptr noundef nonnull align 8 dereferenceable(24) %property, i8 0, i64 24, i1 false)
  ret void
}